; Function Attrs: mustprogress nounwind uwtable
define void @_ZN11KnownIssuesD2Ev(ptr noundef nonnull align 8 dereferenceable(48) %0) unnamed_addr #0 align 2 personality ptr @__gxx_personality_v0 {
  %2 = getelementptr inbounds nuw i8, ptr %0, i64 16
  %3 = load ptr, ptr %2, align 8, !tbaa !37
  invoke void @_ZNSt8_Rb_treeINSt7__cxx1112basic_stringIcSt11char_traitsIcESaIcEEESt4pairIKS5_St3mapIS5_St3setIS5_St4lessIS5_ESaIS5_EESB_SaIS6_IS7_SD_EEEESt10_Select1stISH_ESB_SaISH_EE8_M_eraseEPSt13_Rb_tree_nodeISH_E(ptr noundef nonnull align 8 dereferenceable(48) %0, ptr noundef %3)
          to label %_ZNSt3mapINSt7__cxx1112basic_stringIcSt11char_traitsIcESaIcEEES_IS5_St3setIS5_St4lessIS5_ESaIS5_EES8_SaISt4pairIKS5_SA_EEES8_SaISB_ISC_SF_EEED2Ev.exit unwind label %4

4:                                                ; preds = %1
  %5 = landingpad { ptr, i32 }
          catch ptr null
  %6 = extractvalue { ptr, i32 } %5, 0
  tail call void @__clang_call_terminate(ptr %6) #28
  unreachable

_ZNSt3mapINSt7__cxx1112basic_stringIcSt11char_traitsIcESaIcEEES_IS5_St3setIS5_St4lessIS5_ESaIS5_EES8_SaISt4pairIKS5_SA_EEES8_SaISB_ISC_SF_EEED2Ev.exit: ; preds = %1
  ret void
}